target datalayout = "e-m:e-p270:32:32-p271:32:32-p272:64:64-i64:64-i128:128-f80:128-n8:16:32:64-S128"
target triple = "x86_64-pc-linux-gnu"

%"class.std::basic_string_view" = type { i64, ptr }
%"class.icu_77::ByteSink" = type { ptr }
%"class.icu_77::CheckedArrayByteSink" = type <{ %"class.icu_77::ByteSink", ptr, i32, i32, i32, i8, [3 x i8] }>

; Function Attrs: mustprogress nounwind uwtable
define linkonce_odr noundef ptr @_ZNSt11char_traitsIcE4findEPKcmRS1_(ptr noundef %0, i64 noundef %1, ptr noundef nonnull align 1 dereferenceable(1) %2) #0 comdat align 2 {
  %4 = alloca ptr, align 8
  %5 = alloca ptr, align 8
  %6 = alloca i64, align 8
  %7 = alloca ptr, align 8
  store ptr %0, ptr %5, align 8, !tbaa !17
  store i64 %1, ptr %6, align 8, !tbaa !18
  store ptr %2, ptr %7, align 8, !tbaa !17
  %8 = load i64, ptr %6, align 8, !tbaa !18
  %9 = icmp eq i64 %8, 0
  br i1 %9, label %10, label %11

10:                                               ; preds = %3
  store ptr null, ptr %4, align 8
  br label %18

11:                                               ; preds = %3
  %12 = load ptr, ptr %5, align 8, !tbaa !17
  %13 = load ptr, ptr %7, align 8, !tbaa !17
  %14 = load i8, ptr %13, align 1, !tbaa !25
  %15 = sext i8 %14 to i32
  %16 = load i64, ptr %6, align 8, !tbaa !18
  %17 = call ptr @memchr(ptr noundef %12, i32 noundef %15, i64 noundef %16) #11
  store ptr %17, ptr %4, align 8
  br label %18

18:                                               ; preds = %11, %10
  %19 = load ptr, ptr %4, align 8
  ret ptr %19
}

; Function Attrs: noinline noreturn nounwind uwtable
define linkonce_odr hidden void @__clang_call_terminate(ptr noundef %0) #4 comdat {
  %2 = call ptr @__cxa_begin_catch(ptr %0) #11
  call void @_ZSt9terminatev() #13
  unreachable
}

; Function Attrs: mustprogress nounwind uwtable
define linkonce_odr noundef i64 @_ZNSt11char_traitsIcE6lengthEPKc(ptr noundef %0) #0 comdat align 2 {
  %2 = alloca ptr, align 8
  store ptr %0, ptr %2, align 8, !tbaa !17
  %3 = load ptr, ptr %2, align 8, !tbaa !17
  %4 = call i64 @strlen(ptr noundef %3) #11
  ret i64 %4
}

; Function Attrs: mustprogress nounwind uwtable
define linkonce_odr noundef ptr @_ZNKSt17basic_string_viewIcSt11char_traitsIcEE4dataEv(ptr noundef nonnull align 8 dereferenceable(16) %0) #0 comdat align 2 {
  %2 = alloca ptr, align 8
  store ptr %0, ptr %2, align 8, !tbaa !23
  %3 = load ptr, ptr %2, align 8
  %4 = getelementptr inbounds nuw %"class.std::basic_string_view", ptr %3, i32 0, i32 1
  %5 = load ptr, ptr %4, align 8, !tbaa !28
  ret ptr %5
}

; Function Attrs: mustprogress nounwind uwtable
define linkonce_odr noundef i64 @_ZNKSt17basic_string_viewIcSt11char_traitsIcEE4findEcm(ptr noundef nonnull align 8 dereferenceable(16) %0, i8 noundef signext %1, i64 noundef %2) #0 comdat align 2 personality ptr @__gxx_personality_v0 {
  %4 = alloca ptr, align 8
  %5 = alloca i8, align 1
  %6 = alloca i64, align 8
  %7 = alloca i64, align 8
  %8 = alloca i64, align 8
  %9 = alloca ptr, align 8
  store ptr %0, ptr %4, align 8, !tbaa !23
  store i8 %1, ptr %5, align 1, !tbaa !25
  store i64 %2, ptr %6, align 8, !tbaa !18
  %10 = load ptr, ptr %4, align 8
  call void @llvm.lifetime.start.p0(i64 8, ptr %7) #11
  store i64 -1, ptr %7, align 8, !tbaa !18
  %11 = load i64, ptr %6, align 8, !tbaa !18
  %12 = getelementptr inbounds nuw %"class.std::basic_string_view", ptr %10, i32 0, i32 0
  %13 = load i64, ptr %12, align 8, !tbaa !26
  %14 = icmp ult i64 %11, %13
  br i1 %14, label %15, label %37

15:                                               ; preds = %3
  call void @llvm.lifetime.start.p0(i64 8, ptr %8) #11
  %16 = getelementptr inbounds nuw %"class.std::basic_string_view", ptr %10, i32 0, i32 0
  %17 = load i64, ptr %16, align 8, !tbaa !26
  %18 = load i64, ptr %6, align 8, !tbaa !18
  %19 = sub i64 %17, %18
  store i64 %19, ptr %8, align 8, !tbaa !18
  call void @llvm.lifetime.start.p0(i64 8, ptr %9) #11
  %20 = getelementptr inbounds nuw %"class.std::basic_string_view", ptr %10, i32 0, i32 1
  %21 = load ptr, ptr %20, align 8, !tbaa !28
  %22 = load i64, ptr %6, align 8, !tbaa !18
  %23 = getelementptr inbounds nuw i8, ptr %21, i64 %22
  %24 = load i64, ptr %8, align 8, !tbaa !18
  %25 = invoke noundef ptr @_ZNSt11char_traitsIcE4findEPKcmRS1_(ptr noundef %23, i64 noundef %24, ptr noundef nonnull align 1 dereferenceable(1) %5)
          to label %26 unwind label %39

26:                                               ; preds = %15
  store ptr %25, ptr %9, align 8, !tbaa !17
  %27 = load ptr, ptr %9, align 8, !tbaa !17
  %28 = icmp ne ptr %27, null
  br i1 %28, label %29, label %36

29:                                               ; preds = %26
  %30 = load ptr, ptr %9, align 8, !tbaa !17
  %31 = getelementptr inbounds nuw %"class.std::basic_string_view", ptr %10, i32 0, i32 1
  %32 = load ptr, ptr %31, align 8, !tbaa !28
  %33 = ptrtoint ptr %30 to i64
  %34 = ptrtoint ptr %32 to i64
  %35 = sub i64 %33, %34
  store i64 %35, ptr %7, align 8, !tbaa !18
  br label %36

36:                                               ; preds = %29, %26
  call void @llvm.lifetime.end.p0(i64 8, ptr %9) #11
  call void @llvm.lifetime.end.p0(i64 8, ptr %8) #11
  br label %37

37:                                               ; preds = %36, %3
  %38 = load i64, ptr %7, align 8, !tbaa !18
  call void @llvm.lifetime.end.p0(i64 8, ptr %7) #11
  ret i64 %38

39:                                               ; preds = %15
  %40 = landingpad { ptr, i32 }
          catch ptr null
  %41 = extractvalue { ptr, i32 } %40, 0
  call void @__clang_call_terminate(ptr %41) #13
  unreachable
}

; Function Attrs: mustprogress nounwind uwtable
define linkonce_odr void @_ZNSt17basic_string_viewIcSt11char_traitsIcEEC2EPKc(ptr noundef nonnull align 8 dereferenceable(16) %0, ptr noundef nonnull %1) unnamed_addr #0 comdat align 2 personality ptr @__gxx_personality_v0 {
  %3 = alloca ptr, align 8
  %4 = alloca ptr, align 8
  store ptr %0, ptr %3, align 8, !tbaa !23
  store ptr %1, ptr %4, align 8, !tbaa !17
  %5 = load ptr, ptr %3, align 8
  %6 = getelementptr inbounds nuw %"class.std::basic_string_view", ptr %5, i32 0, i32 0
  %7 = load ptr, ptr %4, align 8, !tbaa !17
  %8 = invoke noundef i64 @_ZNSt11char_traitsIcE6lengthEPKc(ptr noundef %7)
          to label %9 unwind label %12

9:                                                ; preds = %2
  store i64 %8, ptr %6, align 8, !tbaa !26
  %10 = getelementptr inbounds nuw %"class.std::basic_string_view", ptr %5, i32 0, i32 1
  %11 = load ptr, ptr %4, align 8, !tbaa !17
  store ptr %11, ptr %10, align 8, !tbaa !28
  ret void

12:                                               ; preds = %2
  %13 = landingpad { ptr, i32 }
          catch ptr null
  %14 = extractvalue { ptr, i32 } %13, 0
  call void @__clang_call_terminate(ptr %14) #13
  unreachable
}

; Function Attrs: mustprogress nounwind uwtable
define linkonce_odr void @_ZNSt17basic_string_viewIcSt11char_traitsIcEEC2Ev(ptr noundef nonnull align 8 dereferenceable(16) %0) unnamed_addr #0 comdat align 2 {
  %2 = alloca ptr, align 8
  store ptr %0, ptr %2, align 8, !tbaa !23
  %3 = load ptr, ptr %2, align 8
  %4 = getelementptr inbounds nuw %"class.std::basic_string_view", ptr %3, i32 0, i32 0
  store i64 0, ptr %4, align 8, !tbaa !26
  %5 = getelementptr inbounds nuw %"class.std::basic_string_view", ptr %3, i32 0, i32 1
  store ptr null, ptr %5, align 8, !tbaa !28
  ret void
}

; Function Attrs: mustprogress nounwind uwtable
define ptr @locale_getKeywordsStart_77(i64 %0, ptr %1) #0 {
  %3 = alloca ptr, align 8
  %4 = alloca %"class.std::basic_string_view", align 8
  %5 = alloca i64, align 8
  %6 = alloca i32, align 4
  %7 = getelementptr inbounds nuw { i64, ptr }, ptr %4, i32 0, i32 0
  store i64 %0, ptr %7, align 8
  %8 = getelementptr inbounds nuw { i64, ptr }, ptr %4, i32 0, i32 1
  store ptr %1, ptr %8, align 8
  call void @llvm.lifetime.start.p0(i64 8, ptr %5) #11
  %9 = call noundef i64 @_ZNKSt17basic_string_viewIcSt11char_traitsIcEE4findEcm(ptr noundef nonnull align 8 dereferenceable(16) %4, i8 noundef signext 64, i64 noundef 0) #11
  store i64 %9, ptr %5, align 8, !tbaa !18
  %10 = load i64, ptr %5, align 8, !tbaa !18
  %11 = icmp ne i64 %10, -1
  br i1 %11, label %12, label %16

12:                                               ; preds = %2
  %13 = call noundef ptr @_ZNKSt17basic_string_viewIcSt11char_traitsIcEE4dataEv(ptr noundef nonnull align 8 dereferenceable(16) %4) #11
  %14 = load i64, ptr %5, align 8, !tbaa !18
  %15 = getelementptr inbounds nuw i8, ptr %13, i64 %14
  store ptr %15, ptr %3, align 8
  store i32 1, ptr %6, align 4
  br label %17

16:                                               ; preds = %2
  store i32 0, ptr %6, align 4
  br label %17

17:                                               ; preds = %16, %12
  call void @llvm.lifetime.end.p0(i64 8, ptr %5) #11
  %18 = load i32, ptr %6, align 4
  switch i32 %18, label %22 [
    i32 0, label %19
    i32 1, label %20
  ]

19:                                               ; preds = %17
  store ptr null, ptr %3, align 8
  br label %20

20:                                               ; preds = %19, %17
  %21 = load ptr, ptr %3, align 8
  ret ptr %21

22:                                               ; preds = %17
  unreachable
}

; Function Attrs: mustprogress nounwind uwtable
define linkonce_odr void @_ZNSt17basic_string_viewIcSt11char_traitsIcEEC2EPKcm(ptr noundef nonnull align 8 dereferenceable(16) %0, ptr noundef %1, i64 noundef %2) unnamed_addr #0 comdat align 2 {
  %4 = alloca ptr, align 8
  %5 = alloca ptr, align 8
  %6 = alloca i64, align 8
  store ptr %0, ptr %4, align 8, !tbaa !23
  store ptr %1, ptr %5, align 8, !tbaa !17
  store i64 %2, ptr %6, align 8, !tbaa !18
  %7 = load ptr, ptr %4, align 8
  %8 = getelementptr inbounds nuw %"class.std::basic_string_view", ptr %7, i32 0, i32 0
  %9 = load i64, ptr %6, align 8, !tbaa !18
  store i64 %9, ptr %8, align 8, !tbaa !26
  %10 = getelementptr inbounds nuw %"class.std::basic_string_view", ptr %7, i32 0, i32 1
  %11 = load ptr, ptr %5, align 8, !tbaa !17
  store ptr %11, ptr %10, align 8, !tbaa !28
  ret void
}

; Function Attrs: inlinehint mustprogress nounwind uwtable
define internal noundef signext i8 @_ZL9U_FAILURE10UErrorCode(i32 noundef %0) #2 {
  %2 = alloca i32, align 4
  store i32 %0, ptr %2, align 4, !tbaa !15
  %3 = load i32, ptr %2, align 4, !tbaa !15
  %4 = icmp sgt i32 %3, 0
  %5 = zext i1 %4 to i8
  ret i8 %5
}

; Function Attrs: mustprogress uwtable
define i32 @uloc_setKeywordValue_77(ptr noundef %0, ptr noundef %1, ptr noundef %2, i32 noundef %3, ptr noundef %4) #1 personality ptr @__gxx_personality_v0 {
  %6 = alloca i32, align 4
  %7 = alloca ptr, align 8
  %8 = alloca ptr, align 8
  %9 = alloca ptr, align 8
  %10 = alloca i32, align 4
  %11 = alloca ptr, align 8
  %12 = alloca i32, align 4
  %13 = alloca i32, align 4
  %14 = alloca ptr, align 8
  %15 = alloca %"class.std::basic_string_view", align 8
  %16 = alloca i32, align 4
  %17 = alloca %"class.icu_77::CheckedArrayByteSink", align 8
  %18 = alloca i32, align 4
  %19 = alloca %"class.std::basic_string_view", align 8
  %20 = alloca %"class.std::basic_string_view", align 8
  %21 = alloca %"class.std::basic_string_view", align 8
  %22 = alloca ptr, align 8
  %23 = alloca i32, align 4
  store ptr %0, ptr %7, align 8, !tbaa !17
  store ptr %1, ptr %8, align 8, !tbaa !17
  store ptr %2, ptr %9, align 8, !tbaa !17
  store i32 %3, ptr %10, align 4, !tbaa !14
  store ptr %4, ptr %11, align 8, !tbaa !22
  %24 = load ptr, ptr %11, align 8, !tbaa !22
  %25 = load i32, ptr %24, align 4, !tbaa !15
  %26 = call noundef signext i8 @_ZL9U_FAILURE10UErrorCode(i32 noundef %25)
  %27 = icmp ne i8 %26, 0
  br i1 %27, label %28, label %29

28:                                               ; preds = %5
  store i32 0, ptr %6, align 4
  br label %150

29:                                               ; preds = %5
  %30 = load ptr, ptr %7, align 8, !tbaa !17
  %31 = icmp eq ptr %30, null
  br i1 %31, label %37, label %32

32:                                               ; preds = %29
  %33 = load ptr, ptr %7, align 8, !tbaa !17
  %34 = load i8, ptr %33, align 1, !tbaa !25
  %35 = sext i8 %34 to i32
  %36 = icmp eq i32 %35, 0
  br i1 %36, label %37, label %39

37:                                               ; preds = %32, %29
  %38 = load ptr, ptr %11, align 8, !tbaa !22
  store i32 1, ptr %38, align 4, !tbaa !15
  store i32 0, ptr %6, align 4
  br label %150

39:                                               ; preds = %32
  %40 = load i32, ptr %10, align 4, !tbaa !14
  %41 = icmp sle i32 %40, 1
  br i1 %41, label %42, label %44

42:                                               ; preds = %39
  %43 = load ptr, ptr %11, align 8, !tbaa !22
  store i32 1, ptr %43, align 4, !tbaa !15
  store i32 0, ptr %6, align 4
  br label %150

44:                                               ; preds = %39
  call void @llvm.lifetime.start.p0(i64 4, ptr %12) #11
  %45 = load ptr, ptr %9, align 8, !tbaa !17
  %46 = call i64 @strlen(ptr noundef %45) #14
  %47 = trunc i64 %46 to i32
  store i32 %47, ptr %12, align 4, !tbaa !14
  %48 = load i32, ptr %10, align 4, !tbaa !14
  %49 = load i32, ptr %12, align 4, !tbaa !14
  %50 = icmp slt i32 %48, %49
  br i1 %50, label %51, label %53

51:                                               ; preds = %44
  %52 = load ptr, ptr %11, align 8, !tbaa !22
  store i32 1, ptr %52, align 4, !tbaa !15
  store i32 0, ptr %6, align 4
  store i32 1, ptr %13, align 4
  br label %149

53:                                               ; preds = %44
  call void @llvm.lifetime.start.p0(i64 8, ptr %14) #11
  %54 = load ptr, ptr %9, align 8, !tbaa !17
  %55 = load i32, ptr %12, align 4, !tbaa !14
  %56 = sext i32 %55 to i64
  call void @_ZNSt17basic_string_viewIcSt11char_traitsIcEEC2EPKcm(ptr noundef nonnull align 8 dereferenceable(16) %15, ptr noundef %54, i64 noundef %56) #11
  %57 = getelementptr inbounds nuw { i64, ptr }, ptr %15, i32 0, i32 0
  %58 = load i64, ptr %57, align 8
  %59 = getelementptr inbounds nuw { i64, ptr }, ptr %15, i32 0, i32 1
  %60 = load ptr, ptr %59, align 8
  %61 = call ptr @locale_getKeywordsStart_77(i64 %58, ptr %60)
  store ptr %61, ptr %14, align 8, !tbaa !17
  call void @llvm.lifetime.start.p0(i64 4, ptr %16) #11
  %62 = load ptr, ptr %14, align 8, !tbaa !17
  %63 = icmp eq ptr %62, null
  br i1 %63, label %64, label %67

64:                                               ; preds = %53
  %65 = load i32, ptr %12, align 4, !tbaa !14
  %66 = sext i32 %65 to i64
  br label %73

67:                                               ; preds = %53
  %68 = load ptr, ptr %14, align 8, !tbaa !17
  %69 = load ptr, ptr %9, align 8, !tbaa !17
  %70 = ptrtoint ptr %68 to i64
  %71 = ptrtoint ptr %69 to i64
  %72 = sub i64 %70, %71
  br label %73

73:                                               ; preds = %67, %64
  %74 = phi i64 [ %66, %64 ], [ %72, %67 ]
  %75 = trunc i64 %74 to i32
  store i32 %75, ptr %16, align 4, !tbaa !14
  call void @llvm.lifetime.start.p0(i64 32, ptr %17) #11
  %76 = load ptr, ptr %14, align 8, !tbaa !17
  %77 = icmp eq ptr %76, null
  br i1 %77, label %78, label %83

78:                                               ; preds = %73
  %79 = load ptr, ptr %9, align 8, !tbaa !17
  %80 = load i32, ptr %12, align 4, !tbaa !14
  %81 = sext i32 %80 to i64
  %82 = getelementptr inbounds i8, ptr %79, i64 %81
  br label %85

83:                                               ; preds = %73
  %84 = load ptr, ptr %14, align 8, !tbaa !17
  br label %85

85:                                               ; preds = %83, %78
  %86 = phi ptr [ %82, %78 ], [ %84, %83 ]
  %87 = load i32, ptr %10, align 4, !tbaa !14
  %88 = load i32, ptr %16, align 4, !tbaa !14
  %89 = sub nsw i32 %87, %88
  %90 = sub nsw i32 %89, 1
  call void @_ZN6icu_7720CheckedArrayByteSinkC1EPci(ptr noundef nonnull align 8 dereferenceable(29) %17, ptr noundef %86, i32 noundef %90)
  call void @llvm.lifetime.start.p0(i64 4, ptr %18) #11
  %91 = load ptr, ptr %14, align 8, !tbaa !17
  %92 = icmp eq ptr %91, null
  br i1 %92, label %93, label %94

93:                                               ; preds = %85
  call void @_ZNSt17basic_string_viewIcSt11char_traitsIcEEC2Ev(ptr noundef nonnull align 8 dereferenceable(16) %19) #11
  br label %96

94:                                               ; preds = %85
  %95 = load ptr, ptr %14, align 8, !tbaa !17
  call void @_ZNSt17basic_string_viewIcSt11char_traitsIcEEC2EPKc(ptr noundef nonnull align 8 dereferenceable(16) %19, ptr noundef %95) #11
  br label %96

96:                                               ; preds = %94, %93
  %97 = load ptr, ptr %7, align 8, !tbaa !17
  call void @_ZNSt17basic_string_viewIcSt11char_traitsIcEEC2EPKc(ptr noundef nonnull align 8 dereferenceable(16) %20, ptr noundef %97) #11
  %98 = load ptr, ptr %8, align 8, !tbaa !17
  %99 = icmp eq ptr %98, null
  br i1 %99, label %100, label %101

100:                                              ; preds = %96
  call void @_ZNSt17basic_string_viewIcSt11char_traitsIcEEC2Ev(ptr noundef nonnull align 8 dereferenceable(16) %21) #11
  br label %103

101:                                              ; preds = %96
  %102 = load ptr, ptr %8, align 8, !tbaa !17
  call void @_ZNSt17basic_string_viewIcSt11char_traitsIcEEC2EPKc(ptr noundef nonnull align 8 dereferenceable(16) %21, ptr noundef %102) #11
  br label %103

103:                                              ; preds = %101, %100
  %104 = load ptr, ptr %11, align 8, !tbaa !22
  %105 = getelementptr inbounds nuw { i64, ptr }, ptr %19, i32 0, i32 0
  %106 = load i64, ptr %105, align 8
  %107 = getelementptr inbounds nuw { i64, ptr }, ptr %19, i32 0, i32 1
  %108 = load ptr, ptr %107, align 8
  %109 = getelementptr inbounds nuw { i64, ptr }, ptr %20, i32 0, i32 0
  %110 = load i64, ptr %109, align 8
  %111 = getelementptr inbounds nuw { i64, ptr }, ptr %20, i32 0, i32 1
  %112 = load ptr, ptr %111, align 8
  %113 = getelementptr inbounds nuw { i64, ptr }, ptr %21, i32 0, i32 0
  %114 = load i64, ptr %113, align 8
  %115 = getelementptr inbounds nuw { i64, ptr }, ptr %21, i32 0, i32 1
  %116 = load ptr, ptr %115, align 8
  %117 = invoke noundef i32 @_Z26ulocimp_setKeywordValue_77St17basic_string_viewIcSt11char_traitsIcEES2_S2_RN6icu_778ByteSinkER10UErrorCode(i64 %106, ptr %108, i64 %110, ptr %112, i64 %114, ptr %116, ptr noundef nonnull align 8 dereferenceable(8) %17, ptr noundef nonnull align 4 dereferenceable(4) %104)
          to label %118 unwind label %135

118:                                              ; preds = %103
  store i32 %117, ptr %18, align 4, !tbaa !14
  %119 = load ptr, ptr %11, align 8, !tbaa !22
  %120 = load i32, ptr %119, align 4, !tbaa !15
  %121 = invoke noundef signext i8 @_ZL9U_FAILURE10UErrorCode(i32 noundef %120)
          to label %122 unwind label %135

122:                                              ; preds = %118
  %123 = icmp ne i8 %121, 0
  br i1 %123, label %124, label %139

124:                                              ; preds = %122
  %125 = load ptr, ptr %11, align 8, !tbaa !22
  %126 = load i32, ptr %125, align 4, !tbaa !15
  %127 = icmp eq i32 %126, 15
  br i1 %127, label %128, label %132

128:                                              ; preds = %124
  %129 = load i32, ptr %18, align 4, !tbaa !14
  %130 = load i32, ptr %16, align 4, !tbaa !14
  %131 = add nsw i32 %129, %130
  br label %133

132:                                              ; preds = %124
  br label %133

133:                                              ; preds = %132, %128
  %134 = phi i32 [ %131, %128 ], [ 0, %132 ]
  store i32 %134, ptr %6, align 4
  store i32 1, ptr %13, align 4
  br label %148

135:                                              ; preds = %139, %118, %103
  %136 = landingpad { ptr, i32 }
          cleanup
  %137 = extractvalue { ptr, i32 } %136, 0
  store ptr %137, ptr %22, align 8
  %138 = extractvalue { ptr, i32 } %136, 1
  store i32 %138, ptr %23, align 4
  call void @llvm.lifetime.end.p0(i64 4, ptr %18) #11
  call void @_ZN6icu_7720CheckedArrayByteSinkD1Ev(ptr noundef nonnull align 8 dereferenceable(29) %17) #11
  call void @llvm.lifetime.end.p0(i64 32, ptr %17) #11
  call void @llvm.lifetime.end.p0(i64 4, ptr %16) #11
  call void @llvm.lifetime.end.p0(i64 8, ptr %14) #11
  call void @llvm.lifetime.end.p0(i64 4, ptr %12) #11
  br label %152

139:                                              ; preds = %122
  %140 = load ptr, ptr %9, align 8, !tbaa !17
  %141 = load i32, ptr %10, align 4, !tbaa !14
  %142 = load i32, ptr %18, align 4, !tbaa !14
  %143 = load i32, ptr %16, align 4, !tbaa !14
  %144 = add nsw i32 %142, %143
  %145 = load ptr, ptr %11, align 8, !tbaa !22
  %146 = invoke i32 @u_terminateChars_77(ptr noundef %140, i32 noundef %141, i32 noundef %144, ptr noundef %145)
          to label %147 unwind label %135

147:                                              ; preds = %139
  store i32 %146, ptr %6, align 4
  store i32 1, ptr %13, align 4
  br label %148

148:                                              ; preds = %147, %133
  call void @llvm.lifetime.end.p0(i64 4, ptr %18) #11
  call void @_ZN6icu_7720CheckedArrayByteSinkD1Ev(ptr noundef nonnull align 8 dereferenceable(29) %17) #11
  call void @llvm.lifetime.end.p0(i64 32, ptr %17) #11
  call void @llvm.lifetime.end.p0(i64 4, ptr %16) #11
  call void @llvm.lifetime.end.p0(i64 8, ptr %14) #11
  br label %149

149:                                              ; preds = %148, %51
  call void @llvm.lifetime.end.p0(i64 4, ptr %12) #11
  br label %150

150:                                              ; preds = %149, %42, %37, %28
  %151 = load i32, ptr %6, align 4
  ret i32 %151

152:                                              ; preds = %135
  %153 = load ptr, ptr %22, align 8
  %154 = load i32, ptr %23, align 4
  %155 = insertvalue { ptr, i32 } poison, ptr %153, 0
  %156 = insertvalue { ptr, i32 } %155, i32 %154, 1
  resume { ptr, i32 } %156
}