; Function Attrs: mustprogress uwtable
define i32 @uloc_setKeywordValue_77(ptr noundef %0, ptr noundef %1, ptr noundef %2, i32 noundef %3, ptr noundef %4) local_unnamed_addr #1 personality ptr @__gxx_personality_v0 {
  %6 = alloca %"class.icu_77::CheckedArrayByteSink", align 8
  %7 = load i32, ptr %4, align 4, !tbaa !13
  %8 = icmp slt i32 %7, 1
  br i1 %8, label %9, label %62

9:                                                ; preds = %5
  %10 = icmp eq ptr %0, null
  br i1 %10, label %14, label %11

11:                                               ; preds = %9
  %12 = load i8, ptr %0, align 1, !tbaa !20
  %13 = icmp eq i8 %12, 0
  br i1 %13, label %14, label %15

14:                                               ; preds = %11, %9
  store i32 1, ptr %4, align 4, !tbaa !13
  br label %62

15:                                               ; preds = %11
  %16 = icmp slt i32 %3, 2
  br i1 %16, label %17, label %18

17:                                               ; preds = %15
  store i32 1, ptr %4, align 4, !tbaa !13
  br label %62

18:                                               ; preds = %15
  %19 = tail call i64 @strlen(ptr noundef nonnull dereferenceable(1) %2) #23
  %20 = trunc i64 %19 to i32
  %21 = icmp slt i32 %3, %20
  br i1 %21, label %22, label %23

22:                                               ; preds = %18
  store i32 1, ptr %4, align 4, !tbaa !13
  br label %62

23:                                               ; preds = %18
  %sext = shl i64 %19, 32
  %24 = ashr exact i64 %sext, 32
  %.not12.i = icmp eq i64 %sext, 0
  br i1 %.not12.i, label %.locale_getKeywordsStart_77.exit_crit_edge, label %_ZNSt11char_traitsIcE4findEPKcmRS1_.exit.i.i

.locale_getKeywordsStart_77.exit_crit_edge:       ; preds = %23
  %.pre = ptrtoint ptr %2 to i64
  br label %locale_getKeywordsStart_77.exit

_ZNSt11char_traitsIcE4findEPKcmRS1_.exit.i.i:     ; preds = %23
  %25 = tail call ptr @memchr(ptr noundef nonnull %2, i32 noundef 64, i64 noundef %24) #20
  %.not.i.i = icmp ne ptr %25, null
  %26 = ptrtoint ptr %25 to i64
  %27 = ptrtoint ptr %2 to i64
  %28 = sub i64 %26, %27
  %.not.i = icmp ne i64 %28, -1
  %or.cond.i = select i1 %.not.i.i, i1 %.not.i, i1 false
  %29 = getelementptr inbounds nuw i8, ptr %2, i64 %28
  %spec.select = select i1 %or.cond.i, ptr %29, ptr null
  br label %locale_getKeywordsStart_77.exit

locale_getKeywordsStart_77.exit:                  ; preds = %_ZNSt11char_traitsIcE4findEPKcmRS1_.exit.i.i, %.locale_getKeywordsStart_77.exit_crit_edge
  %.pre-phi = phi i64 [ %.pre, %.locale_getKeywordsStart_77.exit_crit_edge ], [ %27, %_ZNSt11char_traitsIcE4findEPKcmRS1_.exit.i.i ]
  %30 = phi ptr [ null, %.locale_getKeywordsStart_77.exit_crit_edge ], [ %spec.select, %_ZNSt11char_traitsIcE4findEPKcmRS1_.exit.i.i ]
  %31 = icmp eq ptr %30, null
  %32 = ptrtoint ptr %30 to i64
  %33 = sub i64 %32, %.pre-phi
  %34 = select i1 %31, i64 %19, i64 %33
  %35 = trunc i64 %34 to i32
  call void @llvm.lifetime.start.p0(i64 32, ptr nonnull %6) #20
  %36 = getelementptr inbounds i8, ptr %2, i64 %24
  %37 = select i1 %31, ptr %36, ptr %30
  %38 = xor i32 %35, -1
  %39 = add i32 %3, %38
  call void @_ZN6icu_7720CheckedArrayByteSinkC1EPci(ptr noundef nonnull align 8 dereferenceable(29) %6, ptr noundef nonnull %37, i32 noundef %39)
  br i1 %31, label %42, label %40

40:                                               ; preds = %locale_getKeywordsStart_77.exit
  %41 = call noundef i64 @strlen(ptr noundef nonnull dereferenceable(1) %30) #20
  br label %42

42:                                               ; preds = %locale_getKeywordsStart_77.exit, %40
  %.sroa.046.0 = phi i64 [ %41, %40 ], [ 0, %locale_getKeywordsStart_77.exit ]
  %43 = call noundef i64 @strlen(ptr noundef nonnull dereferenceable(1) %0) #20
  %44 = icmp eq ptr %1, null
  br i1 %44, label %47, label %45

45:                                               ; preds = %42
  %46 = call noundef i64 @strlen(ptr noundef nonnull dereferenceable(1) %1) #20
  br label %47

47:                                               ; preds = %42, %45
  %.sroa.0.0 = phi i64 [ %46, %45 ], [ 0, %42 ]
  %48 = invoke noundef i32 @_Z26ulocimp_setKeywordValue_77St17basic_string_viewIcSt11char_traitsIcEES2_S2_RN6icu_778ByteSinkER10UErrorCode(i64 %.sroa.046.0, ptr %30, i64 %43, ptr nonnull %0, i64 %.sroa.0.0, ptr %1, ptr noundef nonnull align 8 dereferenceable(8) %6, ptr noundef nonnull align 4 dereferenceable(4) %4)
          to label %49 unwind label %56

49:                                               ; preds = %47
  %50 = load i32, ptr %4, align 4, !tbaa !13
  %51 = icmp slt i32 %50, 1
  br i1 %51, label %58, label %52

52:                                               ; preds = %49
  %53 = icmp eq i32 %50, 15
  %54 = add nsw i32 %48, %35
  %55 = select i1 %53, i32 %54, i32 0
  br label %61

56:                                               ; preds = %58, %47
  %57 = landingpad { ptr, i32 }
          cleanup
  call void @_ZN6icu_7720CheckedArrayByteSinkD1Ev(ptr noundef nonnull align 8 dereferenceable(29) %6) #20
  call void @llvm.lifetime.end.p0(i64 32, ptr nonnull %6) #20
  resume { ptr, i32 } %57

58:                                               ; preds = %49
  %59 = add nsw i32 %48, %35
  %60 = invoke i32 @u_terminateChars_77(ptr noundef nonnull %2, i32 noundef %3, i32 noundef %59, ptr noundef nonnull %4)
          to label %61 unwind label %56

61:                                               ; preds = %58, %52
  %.2 = phi i32 [ %55, %52 ], [ %60, %58 ]
  call void @_ZN6icu_7720CheckedArrayByteSinkD1Ev(ptr noundef nonnull align 8 dereferenceable(29) %6) #20
  call void @llvm.lifetime.end.p0(i64 32, ptr nonnull %6) #20
  br label %62

62:                                               ; preds = %22, %61, %5, %17, %14
  %.0 = phi i32 [ 0, %14 ], [ 0, %17 ], [ 0, %5 ], [ 0, %22 ], [ %.2, %61 ]
  ret i32 %.0
}